target datalayout = "e-m:e-p270:32:32-p271:32:32-p272:64:64-i64:64-i128:128-f80:128-n8:16:32:64-S128"
target triple = "x86_64-pc-linux-gnu"

%"struct.ozz::math::Quaternion" = type { float, float, float, float }
%"struct.ozz::math::Float4" = type { float, float, float, float }

; Function Attrs: inlinehint mustprogress nounwind uwtable
define linkonce_odr dso_local noundef float @_ZSt4sqrtf(float noundef %0) #9 comdat {
  %2 = alloca float, align 4
  store float %0, ptr %2, align 4, !tbaa !9
  %3 = load float, ptr %2, align 4, !tbaa !9
  %4 = call float @sqrtf(float noundef %3) #15, !tbaa !49
  ret float %4
}

; Function Attrs: alwaysinline mustprogress nounwind uwtable
define linkonce_odr dso_local void @_ZN3ozz4math6Float4C2Effff(ptr noundef nonnull align 4 dereferenceable(16) %0, float noundef %1, float noundef %2, float noundef %3, float noundef %4) unnamed_addr #10 comdat align 2 {
  %6 = alloca ptr, align 8
  %7 = alloca float, align 4
  %8 = alloca float, align 4
  %9 = alloca float, align 4
  %10 = alloca float, align 4
  store ptr %0, ptr %6, align 8, !tbaa !81
  store float %1, ptr %7, align 4, !tbaa !9
  store float %2, ptr %8, align 4, !tbaa !9
  store float %3, ptr %9, align 4, !tbaa !9
  store float %4, ptr %10, align 4, !tbaa !9
  %11 = load ptr, ptr %6, align 8
  %12 = getelementptr inbounds nuw %"struct.ozz::math::Float4", ptr %11, i32 0, i32 0
  %13 = load float, ptr %7, align 4, !tbaa !9
  store float %13, ptr %12, align 4, !tbaa !23
  %14 = getelementptr inbounds nuw %"struct.ozz::math::Float4", ptr %11, i32 0, i32 1
  %15 = load float, ptr %8, align 4, !tbaa !9
  store float %15, ptr %14, align 4, !tbaa !25
  %16 = getelementptr inbounds nuw %"struct.ozz::math::Float4", ptr %11, i32 0, i32 2
  %17 = load float, ptr %9, align 4, !tbaa !9
  store float %17, ptr %16, align 4, !tbaa !26
  %18 = getelementptr inbounds nuw %"struct.ozz::math::Float4", ptr %11, i32 0, i32 3
  %19 = load float, ptr %10, align 4, !tbaa !9
  store float %19, ptr %18, align 4, !tbaa !27
  ret void
}

; Function Attrs: alwaysinline mustprogress nounwind uwtable
define linkonce_odr dso_local void @_ZN3ozz4math10QuaternionC2Effff(ptr noundef nonnull align 4 dereferenceable(16) %0, float noundef %1, float noundef %2, float noundef %3, float noundef %4) unnamed_addr #10 comdat align 2 {
  %6 = alloca ptr, align 8
  %7 = alloca float, align 4
  %8 = alloca float, align 4
  %9 = alloca float, align 4
  %10 = alloca float, align 4
  store ptr %0, ptr %6, align 8, !tbaa !15
  store float %1, ptr %7, align 4, !tbaa !9
  store float %2, ptr %8, align 4, !tbaa !9
  store float %3, ptr %9, align 4, !tbaa !9
  store float %4, ptr %10, align 4, !tbaa !9
  %11 = load ptr, ptr %6, align 8
  %12 = getelementptr inbounds nuw %"struct.ozz::math::Quaternion", ptr %11, i32 0, i32 0
  %13 = load float, ptr %7, align 4, !tbaa !9
  store float %13, ptr %12, align 4, !tbaa !17
  %14 = getelementptr inbounds nuw %"struct.ozz::math::Quaternion", ptr %11, i32 0, i32 1
  %15 = load float, ptr %8, align 4, !tbaa !9
  store float %15, ptr %14, align 4, !tbaa !19
  %16 = getelementptr inbounds nuw %"struct.ozz::math::Quaternion", ptr %11, i32 0, i32 2
  %17 = load float, ptr %9, align 4, !tbaa !9
  store float %17, ptr %16, align 4, !tbaa !20
  %18 = getelementptr inbounds nuw %"struct.ozz::math::Quaternion", ptr %11, i32 0, i32 3
  %19 = load float, ptr %10, align 4, !tbaa !9
  store float %19, ptr %18, align 4, !tbaa !21
  ret void
}

; Function Attrs: alwaysinline mustprogress uwtable
define linkonce_odr dso_local { <2 x float>, <2 x float> } @_ZN3ozz4math5NLerpERKNS0_10QuaternionES3_f(ptr noundef nonnull align 4 dereferenceable(16) %0, ptr noundef nonnull align 4 dereferenceable(16) %1, float noundef %2) #1 comdat {
  %4 = alloca %"struct.ozz::math::Quaternion", align 4
  %5 = alloca ptr, align 8
  %6 = alloca ptr, align 8
  %7 = alloca float, align 4
  %8 = alloca %"struct.ozz::math::Float4", align 4
  %9 = alloca float, align 4
  %10 = alloca float, align 4
  store ptr %0, ptr %5, align 8, !tbaa !15
  store ptr %1, ptr %6, align 8, !tbaa !15
  store float %2, ptr %7, align 4, !tbaa !9
  call void @llvm.lifetime.start.p0(i64 16, ptr %8) #15
  %11 = load ptr, ptr %6, align 8, !tbaa !15
  %12 = getelementptr inbounds nuw %"struct.ozz::math::Quaternion", ptr %11, i32 0, i32 0
  %13 = load float, ptr %12, align 4, !tbaa !17
  %14 = load ptr, ptr %5, align 8, !tbaa !15
  %15 = getelementptr inbounds nuw %"struct.ozz::math::Quaternion", ptr %14, i32 0, i32 0
  %16 = load float, ptr %15, align 4, !tbaa !17
  %17 = fsub float %13, %16
  %18 = load float, ptr %7, align 4, !tbaa !9
  %19 = load ptr, ptr %5, align 8, !tbaa !15
  %20 = getelementptr inbounds nuw %"struct.ozz::math::Quaternion", ptr %19, i32 0, i32 0
  %21 = load float, ptr %20, align 4, !tbaa !17
  %22 = call float @llvm.fmuladd.f32(float %17, float %18, float %21)
  %23 = load ptr, ptr %6, align 8, !tbaa !15
  %24 = getelementptr inbounds nuw %"struct.ozz::math::Quaternion", ptr %23, i32 0, i32 1
  %25 = load float, ptr %24, align 4, !tbaa !19
  %26 = load ptr, ptr %5, align 8, !tbaa !15
  %27 = getelementptr inbounds nuw %"struct.ozz::math::Quaternion", ptr %26, i32 0, i32 1
  %28 = load float, ptr %27, align 4, !tbaa !19
  %29 = fsub float %25, %28
  %30 = load float, ptr %7, align 4, !tbaa !9
  %31 = load ptr, ptr %5, align 8, !tbaa !15
  %32 = getelementptr inbounds nuw %"struct.ozz::math::Quaternion", ptr %31, i32 0, i32 1
  %33 = load float, ptr %32, align 4, !tbaa !19
  %34 = call float @llvm.fmuladd.f32(float %29, float %30, float %33)
  %35 = load ptr, ptr %6, align 8, !tbaa !15
  %36 = getelementptr inbounds nuw %"struct.ozz::math::Quaternion", ptr %35, i32 0, i32 2
  %37 = load float, ptr %36, align 4, !tbaa !20
  %38 = load ptr, ptr %5, align 8, !tbaa !15
  %39 = getelementptr inbounds nuw %"struct.ozz::math::Quaternion", ptr %38, i32 0, i32 2
  %40 = load float, ptr %39, align 4, !tbaa !20
  %41 = fsub float %37, %40
  %42 = load float, ptr %7, align 4, !tbaa !9
  %43 = load ptr, ptr %5, align 8, !tbaa !15
  %44 = getelementptr inbounds nuw %"struct.ozz::math::Quaternion", ptr %43, i32 0, i32 2
  %45 = load float, ptr %44, align 4, !tbaa !20
  %46 = call float @llvm.fmuladd.f32(float %41, float %42, float %45)
  %47 = load ptr, ptr %6, align 8, !tbaa !15
  %48 = getelementptr inbounds nuw %"struct.ozz::math::Quaternion", ptr %47, i32 0, i32 3
  %49 = load float, ptr %48, align 4, !tbaa !21
  %50 = load ptr, ptr %5, align 8, !tbaa !15
  %51 = getelementptr inbounds nuw %"struct.ozz::math::Quaternion", ptr %50, i32 0, i32 3
  %52 = load float, ptr %51, align 4, !tbaa !21
  %53 = fsub float %49, %52
  %54 = load float, ptr %7, align 4, !tbaa !9
  %55 = load ptr, ptr %5, align 8, !tbaa !15
  %56 = getelementptr inbounds nuw %"struct.ozz::math::Quaternion", ptr %55, i32 0, i32 3
  %57 = load float, ptr %56, align 4, !tbaa !21
  %58 = call float @llvm.fmuladd.f32(float %53, float %54, float %57)
  call void @_ZN3ozz4math6Float4C2Effff(ptr noundef nonnull align 4 dereferenceable(16) %8, float noundef %22, float noundef %34, float noundef %46, float noundef %58)
  call void @llvm.lifetime.start.p0(i64 4, ptr %9) #15
  %59 = getelementptr inbounds nuw %"struct.ozz::math::Float4", ptr %8, i32 0, i32 0
  %60 = load float, ptr %59, align 4, !tbaa !23
  %61 = getelementptr inbounds nuw %"struct.ozz::math::Float4", ptr %8, i32 0, i32 0
  %62 = load float, ptr %61, align 4, !tbaa !23
  %63 = getelementptr inbounds nuw %"struct.ozz::math::Float4", ptr %8, i32 0, i32 1
  %64 = load float, ptr %63, align 4, !tbaa !25
  %65 = getelementptr inbounds nuw %"struct.ozz::math::Float4", ptr %8, i32 0, i32 1
  %66 = load float, ptr %65, align 4, !tbaa !25
  %67 = fmul float %64, %66
  %68 = call float @llvm.fmuladd.f32(float %60, float %62, float %67)
  %69 = getelementptr inbounds nuw %"struct.ozz::math::Float4", ptr %8, i32 0, i32 2
  %70 = load float, ptr %69, align 4, !tbaa !26
  %71 = getelementptr inbounds nuw %"struct.ozz::math::Float4", ptr %8, i32 0, i32 2
  %72 = load float, ptr %71, align 4, !tbaa !26
  %73 = call float @llvm.fmuladd.f32(float %70, float %72, float %68)
  %74 = getelementptr inbounds nuw %"struct.ozz::math::Float4", ptr %8, i32 0, i32 3
  %75 = load float, ptr %74, align 4, !tbaa !27
  %76 = getelementptr inbounds nuw %"struct.ozz::math::Float4", ptr %8, i32 0, i32 3
  %77 = load float, ptr %76, align 4, !tbaa !27
  %78 = call float @llvm.fmuladd.f32(float %75, float %77, float %73)
  store float %78, ptr %9, align 4, !tbaa !9
  call void @llvm.lifetime.start.p0(i64 4, ptr %10) #15
  %79 = load float, ptr %9, align 4, !tbaa !9
  %80 = call noundef float @_ZSt4sqrtf(float noundef %79)
  %81 = fdiv float 1.000000e+00, %80
  store float %81, ptr %10, align 4, !tbaa !9
  %82 = getelementptr inbounds nuw %"struct.ozz::math::Float4", ptr %8, i32 0, i32 0
  %83 = load float, ptr %82, align 4, !tbaa !23
  %84 = load float, ptr %10, align 4, !tbaa !9
  %85 = fmul float %83, %84
  %86 = getelementptr inbounds nuw %"struct.ozz::math::Float4", ptr %8, i32 0, i32 1
  %87 = load float, ptr %86, align 4, !tbaa !25
  %88 = load float, ptr %10, align 4, !tbaa !9
  %89 = fmul float %87, %88
  %90 = getelementptr inbounds nuw %"struct.ozz::math::Float4", ptr %8, i32 0, i32 2
  %91 = load float, ptr %90, align 4, !tbaa !26
  %92 = load float, ptr %10, align 4, !tbaa !9
  %93 = fmul float %91, %92
  %94 = getelementptr inbounds nuw %"struct.ozz::math::Float4", ptr %8, i32 0, i32 3
  %95 = load float, ptr %94, align 4, !tbaa !27
  %96 = load float, ptr %10, align 4, !tbaa !9
  %97 = fmul float %95, %96
  call void @_ZN3ozz4math10QuaternionC2Effff(ptr noundef nonnull align 4 dereferenceable(16) %4, float noundef %85, float noundef %89, float noundef %93, float noundef %97)
  call void @llvm.lifetime.end.p0(i64 4, ptr %10) #15
  call void @llvm.lifetime.end.p0(i64 4, ptr %9) #15
  call void @llvm.lifetime.end.p0(i64 16, ptr %8) #15
  %98 = load { <2 x float>, <2 x float> }, ptr %4, align 4
  ret { <2 x float>, <2 x float> } %98
}

; Function Attrs: alwaysinline mustprogress uwtable
define linkonce_odr dso_local { <2 x float>, <2 x float> } @_ZN3ozz4mathngERKNS0_10QuaternionE(ptr noundef nonnull align 4 dereferenceable(16) %0) #1 comdat {
  %2 = alloca %"struct.ozz::math::Quaternion", align 4
  %3 = alloca ptr, align 8
  store ptr %0, ptr %3, align 8, !tbaa !15
  %4 = load ptr, ptr %3, align 8, !tbaa !15
  %5 = getelementptr inbounds nuw %"struct.ozz::math::Quaternion", ptr %4, i32 0, i32 0
  %6 = load float, ptr %5, align 4, !tbaa !17
  %7 = fneg float %6
  %8 = load ptr, ptr %3, align 8, !tbaa !15
  %9 = getelementptr inbounds nuw %"struct.ozz::math::Quaternion", ptr %8, i32 0, i32 1
  %10 = load float, ptr %9, align 4, !tbaa !19
  %11 = fneg float %10
  %12 = load ptr, ptr %3, align 8, !tbaa !15
  %13 = getelementptr inbounds nuw %"struct.ozz::math::Quaternion", ptr %12, i32 0, i32 2
  %14 = load float, ptr %13, align 4, !tbaa !20
  %15 = fneg float %14
  %16 = load ptr, ptr %3, align 8, !tbaa !15
  %17 = getelementptr inbounds nuw %"struct.ozz::math::Quaternion", ptr %16, i32 0, i32 3
  %18 = load float, ptr %17, align 4, !tbaa !21
  %19 = fneg float %18
  call void @_ZN3ozz4math10QuaternionC2Effff(ptr noundef nonnull align 4 dereferenceable(16) %2, float noundef %7, float noundef %11, float noundef %15, float noundef %19)
  %20 = load { <2 x float>, <2 x float> }, ptr %2, align 4
  ret { <2 x float>, <2 x float> } %20
}

; Function Attrs: mustprogress uwtable
define dso_local { <2 x float>, <2 x float> } @_ZN3ozz9animation7offline12LerpRotationERKNS_4math10QuaternionES5_f(ptr noundef nonnull align 4 dereferenceable(16) %0, ptr noundef nonnull align 4 dereferenceable(16) %1, float noundef %2) #0 {
  %4 = alloca %"struct.ozz::math::Quaternion", align 4
  %5 = alloca ptr, align 8
  %6 = alloca ptr, align 8
  %7 = alloca float, align 4
  %8 = alloca float, align 4
  %9 = alloca %"struct.ozz::math::Quaternion", align 4
  store ptr %0, ptr %5, align 8, !tbaa !15
  store ptr %1, ptr %6, align 8, !tbaa !15
  store float %2, ptr %7, align 4, !tbaa !9
  call void @llvm.lifetime.start.p0(i64 4, ptr %8) #15
  %10 = load ptr, ptr %5, align 8, !tbaa !15
  %11 = getelementptr inbounds nuw %"struct.ozz::math::Quaternion", ptr %10, i32 0, i32 0
  %12 = load float, ptr %11, align 4, !tbaa !17
  %13 = load ptr, ptr %6, align 8, !tbaa !15
  %14 = getelementptr inbounds nuw %"struct.ozz::math::Quaternion", ptr %13, i32 0, i32 0
  %15 = load float, ptr %14, align 4, !tbaa !17
  %16 = load ptr, ptr %5, align 8, !tbaa !15
  %17 = getelementptr inbounds nuw %"struct.ozz::math::Quaternion", ptr %16, i32 0, i32 1
  %18 = load float, ptr %17, align 4, !tbaa !19
  %19 = load ptr, ptr %6, align 8, !tbaa !15
  %20 = getelementptr inbounds nuw %"struct.ozz::math::Quaternion", ptr %19, i32 0, i32 1
  %21 = load float, ptr %20, align 4, !tbaa !19
  %22 = fmul float %18, %21
  %23 = call float @llvm.fmuladd.f32(float %12, float %15, float %22)
  %24 = load ptr, ptr %5, align 8, !tbaa !15
  %25 = getelementptr inbounds nuw %"struct.ozz::math::Quaternion", ptr %24, i32 0, i32 2
  %26 = load float, ptr %25, align 4, !tbaa !20
  %27 = load ptr, ptr %6, align 8, !tbaa !15
  %28 = getelementptr inbounds nuw %"struct.ozz::math::Quaternion", ptr %27, i32 0, i32 2
  %29 = load float, ptr %28, align 4, !tbaa !20
  %30 = call float @llvm.fmuladd.f32(float %26, float %29, float %23)
  %31 = load ptr, ptr %5, align 8, !tbaa !15
  %32 = getelementptr inbounds nuw %"struct.ozz::math::Quaternion", ptr %31, i32 0, i32 3
  %33 = load float, ptr %32, align 4, !tbaa !21
  %34 = load ptr, ptr %6, align 8, !tbaa !15
  %35 = getelementptr inbounds nuw %"struct.ozz::math::Quaternion", ptr %34, i32 0, i32 3
  %36 = load float, ptr %35, align 4, !tbaa !21
  %37 = call float @llvm.fmuladd.f32(float %33, float %36, float %30)
  store float %37, ptr %8, align 4, !tbaa !9
  %38 = load ptr, ptr %5, align 8, !tbaa !15
  call void @llvm.lifetime.start.p0(i64 16, ptr %9) #15
  %39 = load float, ptr %8, align 4, !tbaa !9
  %40 = fcmp olt float %39, 0.000000e+00
  br i1 %40, label %41, label %48

41:                                               ; preds = %3
  %42 = load ptr, ptr %6, align 8, !tbaa !15
  %43 = call { <2 x float>, <2 x float> } @_ZN3ozz4mathngERKNS0_10QuaternionE(ptr noundef nonnull align 4 dereferenceable(16) %42)
  %44 = getelementptr inbounds nuw { <2 x float>, <2 x float> }, ptr %9, i32 0, i32 0
  %45 = extractvalue { <2 x float>, <2 x float> } %43, 0
  store <2 x float> %45, ptr %44, align 4
  %46 = getelementptr inbounds nuw { <2 x float>, <2 x float> }, ptr %9, i32 0, i32 1
  %47 = extractvalue { <2 x float>, <2 x float> } %43, 1
  store <2 x float> %47, ptr %46, align 4
  br label %50

48:                                               ; preds = %3
  %49 = load ptr, ptr %6, align 8, !tbaa !15
  call void @llvm.memcpy.p0.p0.i64(ptr align 4 %9, ptr align 4 %49, i64 16, i1 false), !tbaa.struct !22
  br label %50

50:                                               ; preds = %48, %41
  %51 = load float, ptr %7, align 4, !tbaa !9
  %52 = call { <2 x float>, <2 x float> } @_ZN3ozz4math5NLerpERKNS0_10QuaternionES3_f(ptr noundef nonnull align 4 dereferenceable(16) %38, ptr noundef nonnull align 4 dereferenceable(16) %9, float noundef %51)
  %53 = getelementptr inbounds nuw { <2 x float>, <2 x float> }, ptr %4, i32 0, i32 0
  %54 = extractvalue { <2 x float>, <2 x float> } %52, 0
  store <2 x float> %54, ptr %53, align 4
  %55 = getelementptr inbounds nuw { <2 x float>, <2 x float> }, ptr %4, i32 0, i32 1
  %56 = extractvalue { <2 x float>, <2 x float> } %52, 1
  store <2 x float> %56, ptr %55, align 4
  call void @llvm.lifetime.end.p0(i64 16, ptr %9) #15
  call void @llvm.lifetime.end.p0(i64 4, ptr %8) #15
  %57 = load { <2 x float>, <2 x float> }, ptr %4, align 4
  ret { <2 x float>, <2 x float> } %57
}