; Function Attrs: mustprogress nofree norecurse nosync nounwind willreturn memory(argmem: read) uwtable
define dso_local { <2 x float>, <2 x float> } @_ZN3ozz9animation7offline12LerpRotationERKNS_4math10QuaternionES5_f(ptr noundef nonnull readonly align 4 captures(none) dereferenceable(16) %0, ptr noundef nonnull readonly align 4 captures(none) dereferenceable(16) %1, float noundef %2) local_unnamed_addr #0 {
  %4 = load float, ptr %0, align 4, !tbaa !11
  %5 = load float, ptr %1, align 4, !tbaa !11
  %6 = getelementptr inbounds nuw i8, ptr %0, i64 4
  %7 = load float, ptr %6, align 4, !tbaa !13
  %8 = getelementptr inbounds nuw i8, ptr %1, i64 4
  %9 = load float, ptr %8, align 4, !tbaa !13
  %10 = fmul float %7, %9
  %11 = tail call float @llvm.fmuladd.f32(float %4, float %5, float %10)
  %12 = getelementptr inbounds nuw i8, ptr %0, i64 8
  %13 = load float, ptr %12, align 4, !tbaa !14
  %14 = getelementptr inbounds nuw i8, ptr %1, i64 8
  %15 = load float, ptr %14, align 4, !tbaa !14
  %16 = tail call float @llvm.fmuladd.f32(float %13, float %15, float %11)
  %17 = getelementptr inbounds nuw i8, ptr %0, i64 12
  %18 = load float, ptr %17, align 4, !tbaa !15
  %19 = getelementptr inbounds nuw i8, ptr %1, i64 12
  %20 = load float, ptr %19, align 4, !tbaa !15
  %21 = tail call float @llvm.fmuladd.f32(float %18, float %20, float %16)
  %22 = fcmp olt float %21, 0.000000e+00
  br i1 %22, label %23, label %28

23:                                               ; preds = %3
  %24 = fneg float %5
  %25 = fneg float %9
  %26 = fneg float %15
  %27 = fneg float %20
  %.sroa.027.0.vec.insert = insertelement <2 x float> poison, float %24, i64 0
  %.sroa.027.4.vec.insert = insertelement <2 x float> %.sroa.027.0.vec.insert, float %25, i64 1
  %.sroa.529.8.vec.insert = insertelement <2 x float> poison, float %26, i64 0
  %.sroa.529.12.vec.insert = insertelement <2 x float> %.sroa.529.8.vec.insert, float %27, i64 1
  br label %29

28:                                               ; preds = %3
  %.sroa.0.0.copyload = load <2 x float>, ptr %1, align 4
  %.sroa.6.0.copyload = load <2 x float>, ptr %14, align 4
  br label %29

29:                                               ; preds = %28, %23
  %.sroa.6.0 = phi <2 x float> [ %.sroa.529.12.vec.insert, %23 ], [ %.sroa.6.0.copyload, %28 ]
  %.sroa.0.0 = phi <2 x float> [ %.sroa.027.4.vec.insert, %23 ], [ %.sroa.0.0.copyload, %28 ]
  %.sroa.0.0.vec.extract = extractelement <2 x float> %.sroa.0.0, i64 0
  %30 = fsub float %.sroa.0.0.vec.extract, %4
  %31 = tail call float @llvm.fmuladd.f32(float %30, float %2, float %4)
  %.sroa.0.4.vec.extract = extractelement <2 x float> %.sroa.0.0, i64 1
  %32 = fsub float %.sroa.0.4.vec.extract, %7
  %33 = tail call float @llvm.fmuladd.f32(float %32, float %2, float %7)
  %.sroa.6.8.vec.extract = extractelement <2 x float> %.sroa.6.0, i64 0
  %34 = fsub float %.sroa.6.8.vec.extract, %13
  %35 = tail call float @llvm.fmuladd.f32(float %34, float %2, float %13)
  %.sroa.6.12.vec.extract = extractelement <2 x float> %.sroa.6.0, i64 1
  %36 = fsub float %.sroa.6.12.vec.extract, %18
  %37 = tail call float @llvm.fmuladd.f32(float %36, float %2, float %18)
  %38 = fmul float %33, %33
  %39 = tail call float @llvm.fmuladd.f32(float %31, float %31, float %38)
  %40 = tail call float @llvm.fmuladd.f32(float %35, float %35, float %39)
  %41 = tail call float @llvm.fmuladd.f32(float %37, float %37, float %40)
  %sqrt = tail call float @llvm.sqrt.f32(float %41)
  %42 = fdiv float 1.000000e+00, %sqrt
  %43 = fmul float %31, %42
  %44 = fmul float %33, %42
  %45 = fmul float %35, %42
  %46 = fmul float %37, %42
  %.sroa.023.0.vec.insert = insertelement <2 x float> poison, float %43, i64 0
  %.sroa.023.4.vec.insert = insertelement <2 x float> %.sroa.023.0.vec.insert, float %44, i64 1
  %.sroa.525.8.vec.insert = insertelement <2 x float> poison, float %45, i64 0
  %.sroa.525.12.vec.insert = insertelement <2 x float> %.sroa.525.8.vec.insert, float %46, i64 1
  %.fca.0.insert.i = insertvalue { <2 x float>, <2 x float> } poison, <2 x float> %.sroa.023.4.vec.insert, 0
  %.fca.1.insert.i = insertvalue { <2 x float>, <2 x float> } %.fca.0.insert.i, <2 x float> %.sroa.525.12.vec.insert, 1
  ret { <2 x float>, <2 x float> } %.fca.1.insert.i
}